target datalayout = "e-m:e-p270:32:32-p271:32:32-p272:64:64-i64:64-i128:128-f80:128-n8:16:32:64-S128"
target triple = "x86_64-pc-linux-gnu"

%struct.GCRef = type { i64 }
%struct.jit_State = type { %struct.GCtrace, ptr, ptr, ptr, ptr, ptr, ptr, i32, i32, i32, i8, i8, %struct.IRType1, i8, %struct.FoldState, ptr, i32, i32, i32, i32, i32, i32, i32, [1 x i32], [5 x %union.TValue], [3 x %union.TValue], ptr, i32, i32, i32, i32, ptr, ptr, i32, i32, i8, ptr, i32, i32, i16, [101 x i16], [258 x i32], [15 x i32], [16 x ptr], [64 x %struct.HotPenalty], i32, [16 x %struct.BPropEntry], i32, %struct.ScEvEntry, ptr, i32, i32, i32, ptr, i32, i32, ptr, ptr, ptr, i64, i64, %union.TValue, ptr, i32, i32 }
%struct.GCtrace = type { %struct.GCRef, i8, i8, i16, i32, i32, %struct.GCRef, ptr, i32, i32, ptr, ptr, %struct.GCRef, %struct.MRef, i32, i32, ptr, i32, i16, i16, i16, i16, i16, i16, i16, i8, i8, i8, i8 }
%struct.MRef = type { i64 }
%struct.IRType1 = type { i8 }
%struct.FoldState = type { %union.IRIns, [2 x %union.IRIns], [2 x %union.IRIns] }
%union.IRIns = type { %struct.GCRef }
%struct.HotPenalty = type { %struct.MRef, i16, i16 }
%struct.BPropEntry = type { i16, i16, i32 }
%struct.ScEvEntry = type { %struct.MRef, i16, i16, i16, i16, %struct.IRType1, i8 }
%union.TValue = type { i64 }
%struct.anon.2 = type { i16, i16, i16, i16 }

; Function Attrs: alwaysinline nounwind uwtable
define internal void @lj_ir_set_(ptr noundef %0, i16 noundef zeroext %1, i16 noundef zeroext %2, i16 noundef zeroext %3) #1 {
  %5 = alloca ptr, align 8
  %6 = alloca i16, align 2
  %7 = alloca i16, align 2
  %8 = alloca i16, align 2
  store ptr %0, ptr %5, align 8, !tbaa !4
  store i16 %1, ptr %6, align 2, !tbaa !14
  store i16 %2, ptr %7, align 2, !tbaa !14
  store i16 %3, ptr %8, align 2, !tbaa !14
  %9 = load i16, ptr %6, align 2, !tbaa !14
  %10 = load ptr, ptr %5, align 8, !tbaa !4
  %11 = getelementptr inbounds nuw %struct.jit_State, ptr %10, i32 0, i32 14
  %12 = getelementptr inbounds nuw %struct.FoldState, ptr %11, i32 0, i32 0
  %13 = getelementptr inbounds nuw %struct.anon.2, ptr %12, i32 0, i32 2
  store i16 %9, ptr %13, align 4, !tbaa !13
  %14 = load i16, ptr %7, align 2, !tbaa !14
  %15 = load ptr, ptr %5, align 8, !tbaa !4
  %16 = getelementptr inbounds nuw %struct.jit_State, ptr %15, i32 0, i32 14
  %17 = getelementptr inbounds nuw %struct.FoldState, ptr %16, i32 0, i32 0
  %18 = getelementptr inbounds nuw %struct.anon.2, ptr %17, i32 0, i32 0
  store i16 %14, ptr %18, align 8, !tbaa !13
  %19 = load i16, ptr %8, align 2, !tbaa !14
  %20 = load ptr, ptr %5, align 8, !tbaa !4
  %21 = getelementptr inbounds nuw %struct.jit_State, ptr %20, i32 0, i32 14
  %22 = getelementptr inbounds nuw %struct.FoldState, ptr %21, i32 0, i32 0
  %23 = getelementptr inbounds nuw %struct.anon.2, ptr %22, i32 0, i32 1
  store i16 %19, ptr %23, align 2, !tbaa !13
  ret void
}

; Function Attrs: nounwind uwtable
define internal void @recff_math_log(ptr noundef %0, ptr noundef %1) #0 {
  %3 = alloca ptr, align 8
  %4 = alloca ptr, align 8
  %5 = alloca i32, align 4
  %6 = alloca i32, align 4
  %7 = alloca i32, align 4
  store ptr %0, ptr %3, align 8, !tbaa !4
  store ptr %1, ptr %4, align 8, !tbaa !46
  call void @llvm.lifetime.start.p0(i64 4, ptr %5) #9
  %8 = load ptr, ptr %3, align 8, !tbaa !4
  %9 = load ptr, ptr %3, align 8, !tbaa !4
  %10 = getelementptr inbounds nuw %struct.jit_State, ptr %9, i32 0, i32 6
  %11 = load ptr, ptr %10, align 8, !tbaa !41
  %12 = getelementptr inbounds i32, ptr %11, i64 0
  %13 = load i32, ptr %12, align 4, !tbaa !9
  %14 = call i32 @lj_ir_tonum(ptr noundef %8, i32 noundef %13)
  store i32 %14, ptr %5, align 4, !tbaa !9
  %15 = load ptr, ptr %3, align 8, !tbaa !4
  %16 = getelementptr inbounds nuw %struct.jit_State, ptr %15, i32 0, i32 6
  %17 = load ptr, ptr %16, align 8, !tbaa !41
  %18 = getelementptr inbounds i32, ptr %17, i64 1
  %19 = load i32, ptr %18, align 4, !tbaa !9
  %20 = icmp ne i32 %19, 0
  br i1 %20, label %21, label %58

21:                                               ; preds = %2
  call void @llvm.lifetime.start.p0(i64 4, ptr %6) #9
  store i32 5, ptr %6, align 4, !tbaa !9
  call void @llvm.lifetime.start.p0(i64 4, ptr %7) #9
  %22 = load ptr, ptr %3, align 8, !tbaa !4
  %23 = load ptr, ptr %3, align 8, !tbaa !4
  %24 = getelementptr inbounds nuw %struct.jit_State, ptr %23, i32 0, i32 6
  %25 = load ptr, ptr %24, align 8, !tbaa !41
  %26 = getelementptr inbounds i32, ptr %25, i64 1
  %27 = load i32, ptr %26, align 4, !tbaa !9
  %28 = call i32 @lj_ir_tonum(ptr noundef %22, i32 noundef %27)
  store i32 %28, ptr %7, align 4, !tbaa !9
  %29 = load ptr, ptr %3, align 8, !tbaa !4
  %30 = load i32, ptr %5, align 4, !tbaa !9
  %31 = trunc i32 %30 to i16
  %32 = load i32, ptr %6, align 4, !tbaa !9
  %33 = trunc i32 %32 to i16
  call void @lj_ir_set_(ptr noundef %29, i16 noundef zeroext 13326, i16 noundef zeroext %31, i16 noundef zeroext %33)
  %34 = load ptr, ptr %3, align 8, !tbaa !4
  %35 = call i32 @lj_opt_fold(ptr noundef %34)
  store i32 %35, ptr %5, align 4, !tbaa !9
  %36 = load ptr, ptr %3, align 8, !tbaa !4
  %37 = load i32, ptr %7, align 4, !tbaa !9
  %38 = trunc i32 %37 to i16
  %39 = load i32, ptr %6, align 4, !tbaa !9
  %40 = trunc i32 %39 to i16
  call void @lj_ir_set_(ptr noundef %36, i16 noundef zeroext 13326, i16 noundef zeroext %38, i16 noundef zeroext %40)
  %41 = load ptr, ptr %3, align 8, !tbaa !4
  %42 = call i32 @lj_opt_fold(ptr noundef %41)
  store i32 %42, ptr %7, align 4, !tbaa !9
  %43 = load ptr, ptr %3, align 8, !tbaa !4
  %44 = load ptr, ptr %3, align 8, !tbaa !4
  %45 = call i32 @lj_ir_knum_u64(ptr noundef %44, i64 noundef 4607182418800017408)
  %46 = trunc i32 %45 to i16
  %47 = load i32, ptr %7, align 4, !tbaa !9
  %48 = trunc i32 %47 to i16
  call void @lj_ir_set_(ptr noundef %43, i16 noundef zeroext 11278, i16 noundef zeroext %46, i16 noundef zeroext %48)
  %49 = load ptr, ptr %3, align 8, !tbaa !4
  %50 = call i32 @lj_opt_fold(ptr noundef %49)
  store i32 %50, ptr %7, align 4, !tbaa !9
  %51 = load ptr, ptr %3, align 8, !tbaa !4
  %52 = load i32, ptr %5, align 4, !tbaa !9
  %53 = trunc i32 %52 to i16
  %54 = load i32, ptr %7, align 4, !tbaa !9
  %55 = trunc i32 %54 to i16
  call void @lj_ir_set_(ptr noundef %51, i16 noundef zeroext 11022, i16 noundef zeroext %53, i16 noundef zeroext %55)
  %56 = load ptr, ptr %3, align 8, !tbaa !4
  %57 = call i32 @lj_opt_fold(ptr noundef %56)
  store i32 %57, ptr %5, align 4, !tbaa !9
  call void @llvm.lifetime.end.p0(i64 4, ptr %7) #9
  call void @llvm.lifetime.end.p0(i64 4, ptr %6) #9
  br label %64

58:                                               ; preds = %2
  %59 = load ptr, ptr %3, align 8, !tbaa !4
  %60 = load i32, ptr %5, align 4, !tbaa !9
  %61 = trunc i32 %60 to i16
  call void @lj_ir_set_(ptr noundef %59, i16 noundef zeroext 13326, i16 noundef zeroext %61, i16 noundef zeroext 4)
  %62 = load ptr, ptr %3, align 8, !tbaa !4
  %63 = call i32 @lj_opt_fold(ptr noundef %62)
  store i32 %63, ptr %5, align 4, !tbaa !9
  br label %64

64:                                               ; preds = %58, %21
  %65 = load i32, ptr %5, align 4, !tbaa !9
  %66 = load ptr, ptr %3, align 8, !tbaa !4
  %67 = getelementptr inbounds nuw %struct.jit_State, ptr %66, i32 0, i32 6
  %68 = load ptr, ptr %67, align 8, !tbaa !41
  %69 = getelementptr inbounds i32, ptr %68, i64 0
  store i32 %65, ptr %69, align 4, !tbaa !9
  call void @llvm.lifetime.end.p0(i64 4, ptr %5) #9
  ret void
}