; Function Attrs: nounwind uwtable
define internal void @recff_math_log(ptr noundef %0, ptr readnone captures(none) %1) #0 {
  %3 = getelementptr inbounds nuw i8, ptr %0, i64 160
  %4 = load ptr, ptr %3, align 8, !tbaa !37
  %5 = load i32, ptr %4, align 4, !tbaa !39
  %6 = tail call i32 @lj_ir_tonum(ptr noundef %0, i32 noundef %5) #9
  %7 = load ptr, ptr %3, align 8, !tbaa !37
  %8 = getelementptr inbounds nuw i8, ptr %7, i64 4
  %9 = load i32, ptr %8, align 4, !tbaa !39
  %.not = icmp eq i32 %9, 0
  br i1 %.not, label %25, label %10

10:                                               ; preds = %2
  %11 = tail call i32 @lj_ir_tonum(ptr noundef nonnull %0, i32 noundef %9) #9
  %12 = trunc i32 %6 to i16
  %13 = getelementptr inbounds nuw i8, ptr %0, i64 184
  %14 = getelementptr inbounds nuw i8, ptr %0, i64 188
  store i16 13326, ptr %14, align 4, !tbaa !4
  store i16 %12, ptr %13, align 8, !tbaa !4
  %15 = getelementptr inbounds nuw i8, ptr %0, i64 186
  store i16 5, ptr %15, align 2, !tbaa !4
  %16 = tail call i32 @lj_opt_fold(ptr noundef nonnull %0) #9
  %17 = trunc i32 %11 to i16
  store i16 13326, ptr %14, align 4, !tbaa !4
  store i16 %17, ptr %13, align 8, !tbaa !4
  store i16 5, ptr %15, align 2, !tbaa !4
  %18 = tail call i32 @lj_opt_fold(ptr noundef nonnull %0) #9
  %19 = tail call i32 @lj_ir_knum_u64(ptr noundef nonnull %0, i64 noundef 4607182418800017408) #9
  %20 = trunc i32 %19 to i16
  %21 = trunc i32 %18 to i16
  store i16 11278, ptr %14, align 4, !tbaa !4
  store i16 %20, ptr %13, align 8, !tbaa !4
  store i16 %21, ptr %15, align 2, !tbaa !4
  %22 = tail call i32 @lj_opt_fold(ptr noundef nonnull %0) #9
  %23 = trunc i32 %16 to i16
  %24 = trunc i32 %22 to i16
  store i16 11022, ptr %14, align 4, !tbaa !4
  store i16 %23, ptr %13, align 8, !tbaa !4
  store i16 %24, ptr %15, align 2, !tbaa !4
  br label %30

25:                                               ; preds = %2
  %26 = trunc i32 %6 to i16
  %27 = getelementptr inbounds nuw i8, ptr %0, i64 184
  %28 = getelementptr inbounds nuw i8, ptr %0, i64 188
  store i16 13326, ptr %28, align 4, !tbaa !4
  store i16 %26, ptr %27, align 8, !tbaa !4
  %29 = getelementptr inbounds nuw i8, ptr %0, i64 186
  store i16 4, ptr %29, align 2, !tbaa !4
  br label %30

30:                                               ; preds = %25, %10
  %31 = tail call i32 @lj_opt_fold(ptr noundef nonnull %0) #9
  %32 = load ptr, ptr %3, align 8, !tbaa !37
  store i32 %31, ptr %32, align 4, !tbaa !39
  ret void
}